target datalayout = "e-m:e-p270:32:32-p271:32:32-p272:64:64-i64:64-i128:128-f80:128-n8:16:32:64-S128"
target triple = "x86_64-pc-linux-gnu"

%struct._zend_executor_globals = type { %struct._zval_struct, %struct._zval_struct, [32 x ptr], ptr, ptr, %struct._zend_array, %struct._zend_array, ptr, i32, i8, %struct._zval_struct, i32, ptr, ptr, ptr, ptr, ptr, ptr, i64, ptr, ptr, i32, ptr, i32, i64, i32, i32, i32, i8, i8, %struct.zend_atomic_bool_s, %struct.zend_atomic_bool_s, ptr, i64, ptr, ptr, %struct._zend_array, %struct._zend_array, i32, i8, %struct._zval_struct, %struct._zval_struct, %struct._zend_stack, %struct._zend_stack, %struct._zend_stack, ptr, i32, i32, i64, ptr, ptr, ptr, %struct._zend_objects_store, %struct._zend_lazy_objects_store, ptr, ptr, ptr, [3 x %struct._zend_op], ptr, i8, i8, i64, i32, i32, ptr, [16 x %struct._HashTableIterator], ptr, %union._zend_function, %struct._zend_op, %struct._zend_array, i64, %struct.zend_get_gc_buffer, ptr, ptr, ptr, i64, i8, i32, ptr, ptr, i64, %struct._zend_call_stack, i64, i64, %struct._zend_strtod_state, [6 x ptr] }
%struct.zend_atomic_bool_s = type { i8 }
%struct._zval_struct = type { %union._zend_value, %union.anon, %union.anon.2 }
%union._zend_value = type { i64 }
%union.anon = type { i32 }
%union.anon.2 = type { i32 }
%struct._zend_stack = type { i32, i32, i32, ptr }
%struct._zend_objects_store = type { ptr, i32, i32, i32 }
%struct._zend_lazy_objects_store = type { %struct._zend_array }
%struct._HashTableIterator = type { ptr, i32, i32 }
%union._zend_function = type { %struct._zend_op_array }
%struct._zend_op_array = type { i8, [3 x i8], i32, ptr, ptr, ptr, i32, i32, ptr, ptr, ptr, ptr, i32, ptr, i32, i32, i32, ptr, ptr, ptr, ptr, ptr, i32, i32, ptr, ptr, ptr, i32, i32, i32, i32, ptr, ptr, [6 x ptr] }
%struct._zend_op = type { ptr, %union._znode_op, %union._znode_op, %union._znode_op, i32, i32, i8, i8, i8, i8 }
%union._znode_op = type { i32 }
%struct._zend_array = type { %struct._zend_refcounted_h, %union.anon.4, i32, %union.anon.6, i32, i32, i32, i32, i64, ptr }
%struct._zend_refcounted_h = type { i32, %union.anon.3 }
%union.anon.3 = type { i32 }
%union.anon.4 = type { i32 }
%union.anon.6 = type { ptr }
%struct.zend_get_gc_buffer = type { ptr, ptr, ptr }
%struct._zend_call_stack = type { ptr, i64 }
%struct._zend_strtod_state = type { [8 x ptr], ptr, ptr }
%struct._zend_object = type { %struct._zend_refcounted_h, i32, i32, ptr, ptr, ptr, [1 x %struct._zval_struct] }
%struct._zend_string = type { %struct._zend_refcounted_h, i64, i64, [1 x i8] }
%struct.autoload_func_info = type { ptr, ptr, ptr, ptr }
%struct.anon.7 = type { i8, [3 x i8], i32, ptr, ptr, ptr, i32, i32, ptr, ptr, ptr, ptr, i32, ptr }
%struct._zend_refcounted = type { %struct._zend_refcounted_h }

@executor_globals = external global %struct._zend_executor_globals, align 8

; Function Attrs: alwaysinline nounwind uwtable
define internal i32 @zval_gc_flags(i32 noundef %0) #4 {
  %2 = alloca i32, align 4
  store i32 %0, ptr %2, align 4, !tbaa !56
  %3 = load i32, ptr %2, align 4, !tbaa !56
  %4 = lshr i32 %3, 0
  %5 = and i32 %4, 1008
  ret i32 %5
}

; Function Attrs: alwaysinline nounwind uwtable
define internal i32 @zend_gc_delref(ptr noundef %0) #4 {
  %2 = alloca ptr, align 8
  store ptr %0, ptr %2, align 8, !tbaa !117
  %3 = load ptr, ptr %2, align 8, !tbaa !117
  %4 = getelementptr inbounds nuw %struct._zend_refcounted_h, ptr %3, i32 0, i32 0
  %5 = load i32, ptr %4, align 4, !tbaa !119
  %6 = icmp ugt i32 %5, 0
  call void @llvm.assume(i1 %6)
  br label %7

7:                                                ; preds = %1
  br label %8

8:                                                ; preds = %7
  %9 = load ptr, ptr %2, align 8, !tbaa !117
  %10 = getelementptr inbounds nuw %struct._zend_refcounted_h, ptr %9, i32 0, i32 0
  %11 = load i32, ptr %10, align 4, !tbaa !119
  %12 = add i32 %11, -1
  store i32 %12, ptr %10, align 4, !tbaa !119
  ret i32 %12
}

; Function Attrs: alwaysinline nounwind uwtable
define internal void @zend_array_release(ptr noundef %0) #4 {
  %2 = alloca ptr, align 8
  store ptr %0, ptr %2, align 8, !tbaa !52
  %3 = load ptr, ptr %2, align 8, !tbaa !52
  %4 = getelementptr inbounds nuw %struct._zend_array, ptr %3, i32 0, i32 0
  %5 = getelementptr inbounds nuw %struct._zend_refcounted_h, ptr %4, i32 0, i32 1
  %6 = load i32, ptr %5, align 4, !tbaa !13
  %7 = call i32 @zval_gc_flags(i32 noundef %6)
  %8 = and i32 %7, 64
  %9 = icmp ne i32 %8, 0
  br i1 %9, label %18, label %10

10:                                               ; preds = %1
  %11 = load ptr, ptr %2, align 8, !tbaa !52
  %12 = getelementptr inbounds nuw %struct._zend_array, ptr %11, i32 0, i32 0
  %13 = call i32 @zend_gc_delref(ptr noundef %12)
  %14 = icmp eq i32 %13, 0
  br i1 %14, label %15, label %17

15:                                               ; preds = %10
  %16 = load ptr, ptr %2, align 8, !tbaa !52
  call void @zend_array_destroy(ptr noundef %16)
  br label %17

17:                                               ; preds = %15, %10
  br label %18

18:                                               ; preds = %17, %1
  ret void
}

; Function Attrs: alwaysinline nounwind uwtable
define internal void @zend_string_release_ex(ptr noundef %0, i1 noundef zeroext %1) #4 {
  %3 = alloca ptr, align 8
  %4 = alloca i8, align 1
  store ptr %0, ptr %3, align 8, !tbaa !53
  %5 = zext i1 %1 to i8
  store i8 %5, ptr %4, align 1, !tbaa !11
  %6 = load ptr, ptr %3, align 8, !tbaa !53
  %7 = getelementptr inbounds nuw %struct._zend_string, ptr %6, i32 0, i32 0
  %8 = getelementptr inbounds nuw %struct._zend_refcounted_h, ptr %7, i32 0, i32 1
  %9 = load i32, ptr %8, align 4, !tbaa !13
  %10 = call i32 @zval_gc_flags(i32 noundef %9)
  %11 = and i32 %10, 64
  %12 = icmp ne i32 %11, 0
  br i1 %12, label %27, label %13

13:                                               ; preds = %2
  %14 = load ptr, ptr %3, align 8, !tbaa !53
  %15 = getelementptr inbounds nuw %struct._zend_string, ptr %14, i32 0, i32 0
  %16 = call i32 @zend_gc_delref(ptr noundef %15)
  %17 = icmp eq i32 %16, 0
  br i1 %17, label %18, label %26

18:                                               ; preds = %13
  %19 = load i8, ptr %4, align 1, !tbaa !11, !range !46, !noundef !47
  %20 = trunc i8 %19 to i1
  br i1 %20, label %21, label %23

21:                                               ; preds = %18
  %22 = load ptr, ptr %3, align 8, !tbaa !53
  call void @free(ptr noundef %22) #12
  br label %25

23:                                               ; preds = %18
  %24 = load ptr, ptr %3, align 8, !tbaa !53
  call void @_efree(ptr noundef %24)
  br label %25

25:                                               ; preds = %23, %21
  br label %26

26:                                               ; preds = %25, %13
  br label %27

27:                                               ; preds = %26, %2
  ret void
}

; Function Attrs: alwaysinline nounwind uwtable
define internal void @zend_object_release(ptr noundef %0) #4 {
  %2 = alloca ptr, align 8
  store ptr %0, ptr %2, align 8, !tbaa !120
  %3 = load ptr, ptr %2, align 8, !tbaa !120
  %4 = getelementptr inbounds nuw %struct._zend_object, ptr %3, i32 0, i32 0
  %5 = call i32 @zend_gc_delref(ptr noundef %4)
  %6 = icmp eq i32 %5, 0
  br i1 %6, label %7, label %9

7:                                                ; preds = %1
  %8 = load ptr, ptr %2, align 8, !tbaa !120
  call void @zend_objects_store_del(ptr noundef %8)
  br label %25

9:                                                ; preds = %1
  %10 = load ptr, ptr %2, align 8, !tbaa !120
  %11 = getelementptr inbounds nuw %struct._zend_refcounted, ptr %10, i32 0, i32 0
  %12 = getelementptr inbounds nuw %struct._zend_refcounted_h, ptr %11, i32 0, i32 1
  %13 = load i32, ptr %12, align 4, !tbaa !13
  %14 = and i32 %13, -1008
  %15 = icmp eq i32 %14, 0
  %16 = xor i1 %15, true
  %17 = xor i1 %16, true
  %18 = zext i1 %17 to i32
  %19 = sext i32 %18 to i64
  %20 = call i64 @llvm.expect.i64(i64 %19, i64 0)
  %21 = icmp ne i64 %20, 0
  br i1 %21, label %22, label %24

22:                                               ; preds = %9
  %23 = load ptr, ptr %2, align 8, !tbaa !120
  call void @gc_possible_root(ptr noundef %23)
  br label %24

24:                                               ; preds = %22, %9
  br label %25

25:                                               ; preds = %24, %7
  ret void
}

; Function Attrs: nounwind uwtable
define internal void @autoload_func_info_destroy(ptr noundef %0) #0 {
  %2 = alloca ptr, align 8
  store ptr %0, ptr %2, align 8, !tbaa !61
  %3 = load ptr, ptr %2, align 8, !tbaa !61
  %4 = getelementptr inbounds nuw %struct.autoload_func_info, ptr %3, i32 0, i32 1
  %5 = load ptr, ptr %4, align 8, !tbaa !70
  %6 = icmp ne ptr %5, null
  br i1 %6, label %7, label %11

7:                                                ; preds = %1
  %8 = load ptr, ptr %2, align 8, !tbaa !61
  %9 = getelementptr inbounds nuw %struct.autoload_func_info, ptr %8, i32 0, i32 1
  %10 = load ptr, ptr %9, align 8, !tbaa !70
  call void @zend_object_release(ptr noundef %10)
  br label %11

11:                                               ; preds = %7, %1
  %12 = load ptr, ptr %2, align 8, !tbaa !61
  %13 = getelementptr inbounds nuw %struct.autoload_func_info, ptr %12, i32 0, i32 0
  %14 = load ptr, ptr %13, align 8, !tbaa !66
  %15 = icmp ne ptr %14, null
  br i1 %15, label %16, label %61

16:                                               ; preds = %11
  %17 = load ptr, ptr %2, align 8, !tbaa !61
  %18 = getelementptr inbounds nuw %struct.autoload_func_info, ptr %17, i32 0, i32 0
  %19 = load ptr, ptr %18, align 8, !tbaa !66
  %20 = getelementptr inbounds nuw %struct.anon.7, ptr %19, i32 0, i32 2
  %21 = load i32, ptr %20, align 4, !tbaa !13
  %22 = and i32 %21, 262144
  %23 = icmp ne i32 %22, 0
  %24 = xor i1 %23, true
  %25 = xor i1 %24, true
  %26 = zext i1 %25 to i32
  %27 = sext i32 %26 to i64
  %28 = call i64 @llvm.expect.i64(i64 %27, i64 0)
  %29 = icmp ne i64 %28, 0
  br i1 %29, label %30, label %61

30:                                               ; preds = %16
  %31 = load ptr, ptr %2, align 8, !tbaa !61
  %32 = getelementptr inbounds nuw %struct.autoload_func_info, ptr %31, i32 0, i32 0
  %33 = load ptr, ptr %32, align 8, !tbaa !66
  %34 = getelementptr inbounds nuw %struct.anon.7, ptr %33, i32 0, i32 3
  %35 = load ptr, ptr %34, align 8, !tbaa !13
  call void @zend_string_release_ex(ptr noundef %35, i1 noundef zeroext false)
  br label %36

36:                                               ; preds = %30
  %37 = load ptr, ptr %2, align 8, !tbaa !61
  %38 = getelementptr inbounds nuw %struct.autoload_func_info, ptr %37, i32 0, i32 0
  %39 = load ptr, ptr %38, align 8, !tbaa !66
  %40 = getelementptr inbounds nuw %struct.anon.7, ptr %39, i32 0, i32 9
  %41 = load ptr, ptr %40, align 8, !tbaa !13
  %42 = icmp ne ptr %41, null
  br i1 %42, label %43, label %49

43:                                               ; preds = %36
  %44 = load ptr, ptr %2, align 8, !tbaa !61
  %45 = getelementptr inbounds nuw %struct.autoload_func_info, ptr %44, i32 0, i32 0
  %46 = load ptr, ptr %45, align 8, !tbaa !66
  %47 = getelementptr inbounds nuw %struct.anon.7, ptr %46, i32 0, i32 9
  %48 = load ptr, ptr %47, align 8, !tbaa !13
  call void @zend_array_release(ptr noundef %48)
  br label %49

49:                                               ; preds = %43, %36
  %50 = load ptr, ptr %2, align 8, !tbaa !61
  %51 = getelementptr inbounds nuw %struct.autoload_func_info, ptr %50, i32 0, i32 0
  %52 = load ptr, ptr %51, align 8, !tbaa !66
  %53 = icmp eq ptr %52, getelementptr inbounds nuw (%struct._zend_executor_globals, ptr @executor_globals, i32 0, i32 67)
  br i1 %53, label %54, label %55

54:                                               ; preds = %49
  store ptr null, ptr getelementptr inbounds nuw (%struct.anon.7, ptr getelementptr inbounds nuw (%struct._zend_executor_globals, ptr @executor_globals, i32 0, i32 67), i32 0, i32 9), align 8, !tbaa !13
  store ptr null, ptr getelementptr inbounds nuw (%struct.anon.7, ptr getelementptr inbounds nuw (%struct._zend_executor_globals, ptr @executor_globals, i32 0, i32 67), i32 0, i32 3), align 8, !tbaa !13
  br label %59

55:                                               ; preds = %49
  %56 = load ptr, ptr %2, align 8, !tbaa !61
  %57 = getelementptr inbounds nuw %struct.autoload_func_info, ptr %56, i32 0, i32 0
  %58 = load ptr, ptr %57, align 8, !tbaa !66
  call void @_efree(ptr noundef %58)
  br label %59

59:                                               ; preds = %55, %54
  br label %60

60:                                               ; preds = %59
  br label %61

61:                                               ; preds = %60, %16, %11
  %62 = load ptr, ptr %2, align 8, !tbaa !61
  %63 = getelementptr inbounds nuw %struct.autoload_func_info, ptr %62, i32 0, i32 2
  %64 = load ptr, ptr %63, align 8, !tbaa !91
  %65 = icmp ne ptr %64, null
  br i1 %65, label %66, label %70

66:                                               ; preds = %61
  %67 = load ptr, ptr %2, align 8, !tbaa !61
  %68 = getelementptr inbounds nuw %struct.autoload_func_info, ptr %67, i32 0, i32 2
  %69 = load ptr, ptr %68, align 8, !tbaa !91
  call void @zend_object_release(ptr noundef %69)
  br label %70

70:                                               ; preds = %66, %61
  %71 = load ptr, ptr %2, align 8, !tbaa !61
  call void @_efree(ptr noundef %71)
  ret void
}