; Function Attrs: nounwind uwtable
define internal fastcc void @autoload_func_info_destroy(ptr noundef %0) unnamed_addr #0 {
  %2 = getelementptr inbounds nuw i8, ptr %0, i64 8
  %3 = load ptr, ptr %2, align 8, !tbaa !66
  %.not = icmp eq ptr %3, null
  br i1 %.not, label %zend_object_release.exit, label %4

4:                                                ; preds = %1
  %5 = load i32, ptr %3, align 4, !tbaa !51
  %6 = icmp ne i32 %5, 0
  tail call void @llvm.assume(i1 %6)
  %7 = add i32 %5, -1
  store i32 %7, ptr %3, align 4, !tbaa !51
  %8 = icmp eq i32 %7, 0
  br i1 %8, label %9, label %10

9:                                                ; preds = %4
  tail call void @zend_objects_store_del(ptr noundef nonnull %3) #10
  br label %zend_object_release.exit

10:                                               ; preds = %4
  %11 = getelementptr inbounds nuw i8, ptr %3, i64 4
  %12 = load i32, ptr %11, align 4, !tbaa !8
  %13 = and i32 %12, -1008
  %14 = icmp eq i32 %13, 0
  br i1 %14, label %15, label %zend_object_release.exit, !prof !84

15:                                               ; preds = %10
  tail call void @gc_possible_root(ptr noundef nonnull %3) #10
  br label %zend_object_release.exit

zend_object_release.exit:                         ; preds = %15, %10, %9, %1
  %16 = load ptr, ptr %0, align 8, !tbaa !63
  %.not16 = icmp eq ptr %16, null
  br i1 %.not16, label %50, label %17

17:                                               ; preds = %zend_object_release.exit
  %18 = getelementptr inbounds nuw i8, ptr %16, i64 4
  %19 = load i32, ptr %18, align 4, !tbaa !8
  %20 = and i32 %19, 262144
  %.not17 = icmp eq i32 %20, 0
  br i1 %.not17, label %50, label %21, !prof !52

21:                                               ; preds = %17
  %22 = getelementptr inbounds nuw i8, ptr %16, i64 8
  %23 = load ptr, ptr %22, align 8, !tbaa !8
  %24 = getelementptr inbounds nuw i8, ptr %23, i64 4
  %25 = load i32, ptr %24, align 4, !tbaa !8
  %26 = and i32 %25, 64
  %.not.i = icmp eq i32 %26, 0
  br i1 %.not.i, label %27, label %zend_string_release_ex.exit

27:                                               ; preds = %21
  %28 = load i32, ptr %23, align 4, !tbaa !51
  %29 = icmp ne i32 %28, 0
  tail call void @llvm.assume(i1 %29)
  %30 = add i32 %28, -1
  store i32 %30, ptr %23, align 4, !tbaa !51
  %31 = icmp eq i32 %30, 0
  br i1 %31, label %32, label %zend_string_release_ex.exit

32:                                               ; preds = %27
  tail call void @_efree(ptr noundef nonnull %23) #10
  %.pre = load ptr, ptr %0, align 8, !tbaa !63
  br label %zend_string_release_ex.exit

zend_string_release_ex.exit:                      ; preds = %21, %27, %32
  %33 = phi ptr [ %16, %21 ], [ %16, %27 ], [ %.pre, %32 ]
  %34 = getelementptr inbounds nuw i8, ptr %33, i64 48
  %35 = load ptr, ptr %34, align 8, !tbaa !8
  %.not18 = icmp eq ptr %35, null
  br i1 %.not18, label %zend_array_release.exit, label %36

36:                                               ; preds = %zend_string_release_ex.exit
  %37 = getelementptr inbounds nuw i8, ptr %35, i64 4
  %38 = load i32, ptr %37, align 4, !tbaa !8
  %39 = and i32 %38, 64
  %.not.i21 = icmp eq i32 %39, 0
  br i1 %.not.i21, label %40, label %zend_array_release.exit

40:                                               ; preds = %36
  %41 = load i32, ptr %35, align 4, !tbaa !51
  %42 = icmp ne i32 %41, 0
  tail call void @llvm.assume(i1 %42)
  %43 = add i32 %41, -1
  store i32 %43, ptr %35, align 4, !tbaa !51
  %44 = icmp eq i32 %43, 0
  br i1 %44, label %45, label %zend_array_release.exit

45:                                               ; preds = %40
  tail call void @zend_array_destroy(ptr noundef nonnull %35) #10
  %.pr.pre = load ptr, ptr %0, align 8, !tbaa !63
  br label %zend_array_release.exit

zend_array_release.exit:                          ; preds = %45, %40, %36, %zend_string_release_ex.exit
  %46 = phi ptr [ %33, %zend_string_release_ex.exit ], [ %33, %36 ], [ %33, %40 ], [ %.pr.pre, %45 ]
  %47 = icmp eq ptr %46, getelementptr inbounds nuw (i8, ptr @executor_globals, i64 1384)
  br i1 %47, label %48, label %49

48:                                               ; preds = %zend_array_release.exit
  store ptr null, ptr getelementptr inbounds nuw (i8, ptr @executor_globals, i64 1432), align 8, !tbaa !8
  store ptr null, ptr getelementptr inbounds nuw (i8, ptr @executor_globals, i64 1392), align 8, !tbaa !8
  br label %50

49:                                               ; preds = %zend_array_release.exit
  tail call void @_efree(ptr noundef %46) #10
  br label %50

50:                                               ; preds = %49, %48, %17, %zend_object_release.exit
  %51 = getelementptr inbounds nuw i8, ptr %0, i64 16
  %52 = load ptr, ptr %51, align 8, !tbaa !93
  %.not19 = icmp eq ptr %52, null
  br i1 %.not19, label %zend_object_release.exit20, label %53

53:                                               ; preds = %50
  %54 = load i32, ptr %52, align 4, !tbaa !51
  %55 = icmp ne i32 %54, 0
  tail call void @llvm.assume(i1 %55)
  %56 = add i32 %54, -1
  store i32 %56, ptr %52, align 4, !tbaa !51
  %57 = icmp eq i32 %56, 0
  br i1 %57, label %58, label %59

58:                                               ; preds = %53
  tail call void @zend_objects_store_del(ptr noundef nonnull %52) #10
  br label %zend_object_release.exit20

59:                                               ; preds = %53
  %60 = getelementptr inbounds nuw i8, ptr %52, i64 4
  %61 = load i32, ptr %60, align 4, !tbaa !8
  %62 = and i32 %61, -1008
  %63 = icmp eq i32 %62, 0
  br i1 %63, label %64, label %zend_object_release.exit20, !prof !84

64:                                               ; preds = %59
  tail call void @gc_possible_root(ptr noundef nonnull %52) #10
  br label %zend_object_release.exit20

zend_object_release.exit20:                       ; preds = %64, %59, %58, %50
  tail call void @_efree(ptr noundef nonnull %0) #10
  ret void
}